; Function Attrs: nounwind sspstrong uwtable
define dso_local void @tcg_gen_cmp_vec(i32 noundef %cond, i32 noundef %vece, ptr noundef %r, ptr noundef %a, ptr noundef %b) local_unnamed_addr #0 {
entry:
  %0 = tail call align 8 ptr @llvm.threadlocal.address.p0(ptr align 8 @tcg_ctx)
  %1 = load ptr, ptr %0, align 8
  %2 = ptrtoint ptr %r to i64
  %add.ptr.i.i = getelementptr i8, ptr %1, i64 %2
  %3 = ptrtoint ptr %a to i64
  %add.ptr.i.i15 = getelementptr i8, ptr %1, i64 %3
  %4 = ptrtoint ptr %b to i64
  %add.ptr.i.i16 = getelementptr i8, ptr %1, i64 %4
  %5 = ptrtoint ptr %add.ptr.i.i to i64
  %6 = ptrtoint ptr %add.ptr.i.i15 to i64
  %7 = ptrtoint ptr %add.ptr.i.i16 to i64
  %bf.load = load i64, ptr %add.ptr.i.i, align 8
  %8 = trunc i64 %bf.load to i32
  %9 = lshr i32 %8, 16
  %bf.cast = and i32 %9, 255
  %bf.load6 = load i64, ptr %add.ptr.i.i15, align 8
  %10 = trunc i64 %bf.load6 to i32
  %11 = lshr i32 %10, 16
  %bf.cast9 = and i32 %11, 255
  %cmp = icmp samesign uge i32 %bf.cast9, %bf.cast
  tail call void @llvm.assume(i1 %cmp)
  %bf.load11 = load i64, ptr %add.ptr.i.i16, align 8
  %12 = trunc i64 %bf.load11 to i32
  %13 = lshr i32 %12, 16
  %bf.cast14 = and i32 %13, 255
  %cmp15 = icmp samesign uge i32 %bf.cast14, %bf.cast
  tail call void @llvm.assume(i1 %cmp15)
  %call19 = tail call i32 @tcg_can_emit_vec_op(i32 noundef 190, i32 noundef %bf.cast, i32 noundef %vece) #5
  %cmp20 = icmp sgt i32 %call19, 0
  br i1 %cmp20, label %if.then21, label %if.else

if.then21:                                        ; preds = %entry
  %conv = zext i32 %cond to i64
  %call.i = tail call ptr @tcg_emit_op(i32 noundef 190, i32 noundef 4) #5
  %bf.load.i = load i32, ptr %call.i, align 8
  %sub.i = shl nuw nsw i32 %bf.cast, 16
  %bf.value.i = add nuw nsw i32 %sub.i, 16580608
  %bf.clear.i = and i32 %bf.load.i, 65535
  %bf.value2.i = shl i32 %vece, 24
  %bf.value.masked.i = and i32 %bf.value.i, 16711680
  %bf.clear4.i = or disjoint i32 %bf.value.masked.i, %bf.clear.i
  %bf.set5.i = or disjoint i32 %bf.clear4.i, %bf.value2.i
  store i32 %bf.set5.i, ptr %call.i, align 8
  %args.i = getelementptr inbounds nuw i8, ptr %call.i, i64 32
  store i64 %5, ptr %args.i, align 8
  %arrayidx7.i = getelementptr i8, ptr %call.i, i64 40
  store i64 %6, ptr %arrayidx7.i, align 8
  %arrayidx9.i = getelementptr i8, ptr %call.i, i64 48
  store i64 %7, ptr %arrayidx9.i, align 8
  %arrayidx11.i = getelementptr i8, ptr %call.i, i64 56
  store i64 %conv, ptr %arrayidx11.i, align 8
  br label %if.end30

if.else:                                          ; preds = %entry
  %cmp24 = icmp ne i32 %call19, 0
  tail call void @llvm.assume(i1 %cmp24)
  tail call void (i32, i32, i32, i64, ...) @tcg_expand_vec_op(i32 noundef 190, i32 noundef %bf.cast, i32 noundef %vece, i64 noundef %5, i64 noundef %6, i64 noundef %7, i32 noundef %cond) #5
  br label %if.end30

if.end30:                                         ; preds = %if.else, %if.then21
  ret void
}